target datalayout = "e-m:e-p270:32:32-p271:32:32-p272:64:64-i64:64-i128:128-f80:128-n8:16:32:64-S128"
target triple = "x86_64-pc-linux-gnu"

%struct.object_id = type { [32 x i8], i32 }
%struct.ref_array_item = type { %struct.object_id, ptr, i32, i32, ptr, ptr, ptr, ptr, ptr, [0 x i8] }
%struct.atom_value = type { ptr, i64, ptr, i64, ptr }

@used_atom_cnt = internal global i32 0, align 4

; Function Attrs: nounwind uwtable
define internal void @free_array_item(ptr noundef %0) #0 {
  %2 = alloca ptr, align 8
  %3 = alloca i32, align 4
  store ptr %0, ptr %2, align 8, !tbaa !69
  %4 = load ptr, ptr %2, align 8, !tbaa !69
  %5 = getelementptr inbounds nuw %struct.ref_array_item, ptr %4, i32 0, i32 4
  %6 = load ptr, ptr %5, align 8, !tbaa !13
  call void @free(ptr noundef %6) #11
  %7 = load ptr, ptr %2, align 8, !tbaa !69
  %8 = getelementptr inbounds nuw %struct.ref_array_item, ptr %7, i32 0, i32 6
  %9 = load ptr, ptr %8, align 8, !tbaa !89
  %10 = icmp ne ptr %9, null
  br i1 %10, label %11, label %32

11:                                               ; preds = %1
  call void @llvm.lifetime.start.p0(i64 4, ptr %3) #11
  store i32 0, ptr %3, align 4, !tbaa !15
  br label %12

12:                                               ; preds = %25, %11
  %13 = load i32, ptr %3, align 4, !tbaa !15
  %14 = load i32, ptr @used_atom_cnt, align 4, !tbaa !15
  %15 = icmp slt i32 %13, %14
  br i1 %15, label %16, label %28

16:                                               ; preds = %12
  %17 = load ptr, ptr %2, align 8, !tbaa !69
  %18 = getelementptr inbounds nuw %struct.ref_array_item, ptr %17, i32 0, i32 6
  %19 = load ptr, ptr %18, align 8, !tbaa !89
  %20 = load i32, ptr %3, align 4, !tbaa !15
  %21 = sext i32 %20 to i64
  %22 = getelementptr inbounds %struct.atom_value, ptr %19, i64 %21
  %23 = getelementptr inbounds nuw %struct.atom_value, ptr %22, i32 0, i32 0
  %24 = load ptr, ptr %23, align 8, !tbaa !91
  call void @free(ptr noundef %24) #11
  br label %25

25:                                               ; preds = %16
  %26 = load i32, ptr %3, align 4, !tbaa !15
  %27 = add nsw i32 %26, 1
  store i32 %27, ptr %3, align 4, !tbaa !15
  br label %12, !llvm.loop !93

28:                                               ; preds = %12
  %29 = load ptr, ptr %2, align 8, !tbaa !69
  %30 = getelementptr inbounds nuw %struct.ref_array_item, ptr %29, i32 0, i32 6
  %31 = load ptr, ptr %30, align 8, !tbaa !89
  call void @free(ptr noundef %31) #11
  call void @llvm.lifetime.end.p0(i64 4, ptr %3) #11
  br label %32

32:                                               ; preds = %28, %1
  %33 = load ptr, ptr %2, align 8, !tbaa !69
  %34 = getelementptr inbounds nuw %struct.ref_array_item, ptr %33, i32 0, i32 7
  %35 = load ptr, ptr %34, align 8, !tbaa !94
  call void @free(ptr noundef %35) #11
  %36 = load ptr, ptr %2, align 8, !tbaa !69
  %37 = getelementptr inbounds nuw %struct.ref_array_item, ptr %36, i32 0, i32 8
  %38 = load ptr, ptr %37, align 8, !tbaa !53
  call void @free(ptr noundef %38) #11
  %39 = load ptr, ptr %2, align 8, !tbaa !69
  call void @free(ptr noundef %39) #11
  ret void
}