; Function Attrs: nounwind uwtable
define internal fastcc void @free_array_item(ptr noundef captures(none) %0) unnamed_addr #0 {
  %2 = getelementptr inbounds nuw i8, ptr %0, i64 56
  %3 = load ptr, ptr %2, align 8, !tbaa !59
  tail call void @free(ptr noundef %3) #23
  %4 = getelementptr inbounds nuw i8, ptr %0, i64 72
  %5 = load ptr, ptr %4, align 8, !tbaa !77
  %.not = icmp eq ptr %5, null
  br i1 %.not, label %12, label %.preheader

.preheader:                                       ; preds = %1
  %6 = load i32, ptr @used_atom_cnt, align 4, !tbaa !4
  %7 = icmp sgt i32 %6, 0
  br i1 %7, label %.lr.ph.preheader, label %._crit_edge

.lr.ph.preheader:                                 ; preds = %.preheader
  %wide.trip.count = zext nneg i32 %6 to i64
  br label %.lr.ph

.lr.ph:                                           ; preds = %.lr.ph.preheader, %.lr.ph
  %indvars.iv = phi i64 [ 0, %.lr.ph.preheader ], [ %indvars.iv.next, %.lr.ph ]
  %8 = load ptr, ptr %4, align 8, !tbaa !77
  %9 = getelementptr inbounds nuw %struct.atom_value, ptr %8, i64 %indvars.iv
  %10 = load ptr, ptr %9, align 8, !tbaa !79
  tail call void @free(ptr noundef %10) #23
  %indvars.iv.next = add nuw nsw i64 %indvars.iv, 1
  %exitcond.not = icmp eq i64 %indvars.iv.next, %wide.trip.count
  br i1 %exitcond.not, label %._crit_edge.loopexit, label %.lr.ph, !llvm.loop !81

._crit_edge.loopexit:                             ; preds = %.lr.ph
  %.pre = load ptr, ptr %4, align 8, !tbaa !77
  br label %._crit_edge

._crit_edge:                                      ; preds = %._crit_edge.loopexit, %.preheader
  %11 = phi ptr [ %.pre, %._crit_edge.loopexit ], [ %5, %.preheader ]
  tail call void @free(ptr noundef %11) #23
  br label %12

12:                                               ; preds = %._crit_edge, %1
  %13 = getelementptr inbounds nuw i8, ptr %0, i64 80
  %14 = load ptr, ptr %13, align 8, !tbaa !82
  tail call void @free(ptr noundef %14) #23
  %15 = getelementptr inbounds nuw i8, ptr %0, i64 88
  %16 = load ptr, ptr %15, align 8, !tbaa !84
  tail call void @free(ptr noundef %16) #23
  tail call void @free(ptr noundef nonnull %0) #23
  ret void
}